target datalayout = "e-m:e-p270:32:32-p271:32:32-p272:64:64-i64:64-i128:128-f80:128-n8:16:32:64-S128"
target triple = "x86_64-pc-linux-gnu"

%struct.ui_st = type { ptr, ptr, ptr, %struct.crypto_ex_data_st, i32, ptr }
%struct.crypto_ex_data_st = type { ptr, ptr }
%struct.ui_method_st = type { ptr, ptr, ptr, ptr, ptr, ptr, ptr, ptr, ptr, %struct.crypto_ex_data_st }
%struct.ui_string_st = type { i32, ptr, i32, ptr, i64, %union.anon, i32 }
%union.anon = type { %struct.anon.0 }
%struct.anon.0 = type { ptr, ptr, ptr }

; Function Attrs: nounwind uwtable
define internal i32 @print_error(ptr noundef %0, i64 noundef %1, ptr noundef %2) #0 {
  %4 = alloca i32, align 4
  %5 = alloca ptr, align 8
  %6 = alloca i64, align 8
  %7 = alloca ptr, align 8
  %8 = alloca %struct.ui_string_st, align 8
  %9 = alloca i32, align 4
  store ptr %0, ptr %5, align 8, !tbaa !34
  store i64 %1, ptr %6, align 8, !tbaa !49
  store ptr %2, ptr %7, align 8, !tbaa !8
  call void @llvm.lifetime.start.p0(i64 72, ptr %8) #7
  call void @llvm.memset.p0.i64(ptr align 8 %8, i8 0, i64 72, i1 false)
  %10 = getelementptr inbounds nuw %struct.ui_string_st, ptr %8, i32 0, i32 0
  store i32 5, ptr %10, align 8, !tbaa !32
  %11 = load ptr, ptr %5, align 8, !tbaa !34
  %12 = getelementptr inbounds nuw %struct.ui_string_st, ptr %8, i32 0, i32 1
  store ptr %11, ptr %12, align 8, !tbaa !31
  %13 = load ptr, ptr %7, align 8, !tbaa !8
  %14 = getelementptr inbounds nuw %struct.ui_st, ptr %13, i32 0, i32 0
  %15 = load ptr, ptr %14, align 8, !tbaa !17
  %16 = getelementptr inbounds nuw %struct.ui_method_st, ptr %15, i32 0, i32 2
  %17 = load ptr, ptr %16, align 8, !tbaa !43
  %18 = icmp ne ptr %17, null
  br i1 %18, label %19, label %29

19:                                               ; preds = %3
  %20 = load ptr, ptr %7, align 8, !tbaa !8
  %21 = getelementptr inbounds nuw %struct.ui_st, ptr %20, i32 0, i32 0
  %22 = load ptr, ptr %21, align 8, !tbaa !17
  %23 = getelementptr inbounds nuw %struct.ui_method_st, ptr %22, i32 0, i32 2
  %24 = load ptr, ptr %23, align 8, !tbaa !43
  %25 = load ptr, ptr %7, align 8, !tbaa !8
  %26 = call i32 %24(ptr noundef %25, ptr noundef %8)
  %27 = icmp sle i32 %26, 0
  br i1 %27, label %28, label %29

28:                                               ; preds = %19
  store i32 -1, ptr %4, align 4
  store i32 1, ptr %9, align 4
  br label %30

29:                                               ; preds = %19, %3
  store i32 0, ptr %4, align 4
  store i32 1, ptr %9, align 4
  br label %30

30:                                               ; preds = %29, %28
  call void @llvm.lifetime.end.p0(i64 72, ptr %8) #7
  %31 = load i32, ptr %4, align 4
  ret i32 %31
}