; Function Attrs: nounwind uwtable
define internal range(i32 -1, 1) i32 @print_error(ptr noundef %0, i64 %1, ptr noundef %2) #0 {
  %4 = alloca %struct.ui_string_st, align 8
  call void @llvm.lifetime.start.p0(i64 72, ptr nonnull %4) #8
  call void @llvm.memset.p0.i64(ptr noundef nonnull align 8 dereferenceable(72) %4, i8 0, i64 72, i1 false)
  store i32 5, ptr %4, align 8, !tbaa !25
  %5 = getelementptr inbounds nuw i8, ptr %4, i64 8
  store ptr %0, ptr %5, align 8, !tbaa !24
  %6 = load ptr, ptr %2, align 8, !tbaa !14
  %7 = getelementptr inbounds nuw i8, ptr %6, i64 16
  %8 = load ptr, ptr %7, align 8, !tbaa !34
  %.not = icmp eq ptr %8, null
  br i1 %.not, label %12, label %9

9:                                                ; preds = %3
  %10 = call i32 %8(ptr noundef nonnull %2, ptr noundef nonnull %4) #8
  %11 = icmp slt i32 %10, 1
  br i1 %11, label %13, label %12

12:                                               ; preds = %9, %3
  br label %13

13:                                               ; preds = %9, %12
  %.0 = phi i32 [ 0, %12 ], [ -1, %9 ]
  call void @llvm.lifetime.end.p0(i64 72, ptr nonnull %4) #8
  ret i32 %.0
}